target datalayout = "e-m:e-p270:32:32-p271:32:32-p272:64:64-i64:64-i128:128-f80:128-n8:16:32:64-S128"
target triple = "x86_64-pc-linux-gnu"

%struct._value_string = type { i32, ptr }
%struct._packet_info = type { ptr, ptr, i32, i32, %struct.nstime_t, %struct.nstime_t, %struct.nstime_t, i8, ptr, ptr, ptr, ptr, %struct._address, %struct._address, %struct._address, %struct._address, %struct._address, %struct._address, i32, ptr, i8, [3 x i8], %struct.anon, i32, i32, i32, i32, ptr, i8, ptr, ptr, i16, i16, i32, i32, i16, i32, i32, ptr, ptr, ptr, i8, i8, i16, i16, i16, i32, i16, i16, ptr, ptr, ptr, ptr, ptr, i32, i32 }
%struct.nstime_t = type { i64, i32 }
%struct._address = type { i32, i32, ptr, ptr }
%struct.anon = type { i8, [3 x i8] }

@hf_cba_acco_count = internal global i32 0, align 4
@hf_cba_getidout = internal global i32 0, align 4
@hf_cba_acco_conn_cons_id = internal global i32 0, align 4
@hf_cba_acco_conn_version = internal global i32 0, align 4
@hf_cba_acco_conn_state = internal global i32 0, align 4
@ett_cba_getidout = hidden global i32 0, align 4
@cba_acco_conn_state_vals = internal constant [3 x { i32, [4 x i8], ptr }] [{ i32, [4 x i8], ptr } { i32 0, [4 x i8] zeroinitializer, ptr @.str.224 }, { i32, [4 x i8], ptr } { i32 1, [4 x i8] zeroinitializer, ptr @.str.225 }, { i32, [4 x i8], ptr } zeroinitializer], align 16
@.str.256 = private unnamed_addr constant [17 x i8] c"Unknown (0x%02x)\00", align 1
@dcom_hresult_vals = external constant [0 x %struct._value_string], align 8
@.str.259 = private unnamed_addr constant [17 x i8] c"Unknown (0x%08x)\00", align 1
@.str.260 = private unnamed_addr constant [9 x i8] c": Cnt=%u\00", align 1
@.str.261 = private unnamed_addr constant [7 x i8] c" -> %s\00", align 1
@.str.264 = private unnamed_addr constant [17 x i8] c": Cnt=%u ConsID=\00", align 1
@.str.265 = private unnamed_addr constant [41 x i8] c"[%u]: ConsID=0x%x State=%s Version=%u %s\00", align 1
@.str.266 = private unnamed_addr constant [5 x i8] c"0x%x\00", align 1
@.str.267 = private unnamed_addr constant [6 x i8] c",0x%x\00", align 1
@.str.268 = private unnamed_addr constant [5 x i8] c",...\00", align 1

; Function Attrs: null_pointer_is_valid sspstrong uwtable
define internal i32 @dissect_ICBAAccoMgt_GetIDs_resp(ptr noundef %0, i32 noundef %1, ptr noundef %2, ptr noundef %3, ptr noundef %4, ptr noundef %5) #0 {
  %7 = alloca ptr, align 8
  %8 = alloca i32, align 4
  %9 = alloca ptr, align 8
  %10 = alloca ptr, align 8
  %11 = alloca ptr, align 8
  %12 = alloca ptr, align 8
  %13 = alloca i32, align 4
  %14 = alloca i32, align 4
  %15 = alloca i32, align 4
  %16 = alloca i32, align 4
  %17 = alloca i8, align 1
  %18 = alloca i16, align 2
  %19 = alloca i32, align 4
  %20 = alloca i32, align 4
  %21 = alloca i32, align 4
  %22 = alloca ptr, align 8
  %23 = alloca ptr, align 8
  store ptr %0, ptr %7, align 8
  store i32 %1, ptr %8, align 4
  store ptr %2, ptr %9, align 8
  store ptr %3, ptr %10, align 8
  store ptr %4, ptr %11, align 8
  store ptr %5, ptr %12, align 8
  call void @llvm.lifetime.start.p0(i64 4, ptr %13) #12
  call void @llvm.lifetime.start.p0(i64 4, ptr %14) #12
  call void @llvm.lifetime.start.p0(i64 4, ptr %15) #12
  call void @llvm.lifetime.start.p0(i64 4, ptr %16) #12
  call void @llvm.lifetime.start.p0(i64 1, ptr %17) #12
  call void @llvm.lifetime.start.p0(i64 2, ptr %18) #12
  call void @llvm.lifetime.start.p0(i64 4, ptr %19) #12
  call void @llvm.lifetime.start.p0(i64 4, ptr %20) #12
  call void @llvm.lifetime.start.p0(i64 4, ptr %21) #12
  %24 = load ptr, ptr %7, align 8
  %25 = load i32, ptr %8, align 4
  %26 = load ptr, ptr %9, align 8
  %27 = load ptr, ptr %10, align 8
  %28 = load ptr, ptr %11, align 8
  %29 = load ptr, ptr %12, align 8
  %30 = call i32 @dissect_dcom_that(ptr noundef %24, i32 noundef %25, ptr noundef %26, ptr noundef %27, ptr noundef %28, ptr noundef %29)
  store i32 %30, ptr %8, align 4
  %31 = load ptr, ptr %7, align 8
  %32 = load i32, ptr %8, align 4
  %33 = load ptr, ptr %9, align 8
  %34 = load ptr, ptr %10, align 8
  %35 = load ptr, ptr %11, align 8
  %36 = load ptr, ptr %12, align 8
  %37 = load i32, ptr @hf_cba_acco_count, align 4
  %38 = call i32 @dissect_ndr_uint32(ptr noundef %31, i32 noundef %32, ptr noundef %33, ptr noundef %34, ptr noundef %35, ptr noundef %36, i32 noundef %37, ptr noundef %13)
  store i32 %38, ptr %8, align 4
  %39 = load i32, ptr %13, align 4
  %40 = icmp ne i32 %39, 0
  br i1 %40, label %41, label %46

41:                                               ; preds = %6
  %42 = load ptr, ptr %9, align 8
  %43 = getelementptr inbounds nuw %struct._packet_info, ptr %42, i32 0, i32 1
  %44 = load ptr, ptr %43, align 8
  %45 = load i32, ptr %13, align 4
  call void (ptr, i32, ptr, ...) @col_append_fstr(ptr noundef %44, i32 noundef 25, ptr noundef @.str.264, i32 noundef %45)
  br label %51

46:                                               ; preds = %6
  %47 = load ptr, ptr %9, align 8
  %48 = getelementptr inbounds nuw %struct._packet_info, ptr %47, i32 0, i32 1
  %49 = load ptr, ptr %48, align 8
  %50 = load i32, ptr %13, align 4
  call void (ptr, i32, ptr, ...) @col_append_fstr(ptr noundef %49, i32 noundef 25, ptr noundef @.str.260, i32 noundef %50)
  br label %51

51:                                               ; preds = %46, %41
  %52 = load ptr, ptr %7, align 8
  %53 = load i32, ptr %8, align 4
  %54 = load ptr, ptr %9, align 8
  %55 = load ptr, ptr %10, align 8
  %56 = load ptr, ptr %11, align 8
  %57 = load ptr, ptr %12, align 8
  %58 = call i32 @dissect_dcom_dcerpc_pointer(ptr noundef %52, i32 noundef %53, ptr noundef %54, ptr noundef %55, ptr noundef %56, ptr noundef %57, ptr noundef %14)
  store i32 %58, ptr %8, align 4
  %59 = load i32, ptr %14, align 4
  %60 = icmp ne i32 %59, 0
  br i1 %60, label %61, label %157

61:                                               ; preds = %51
  %62 = load ptr, ptr %7, align 8
  %63 = load i32, ptr %8, align 4
  %64 = load ptr, ptr %9, align 8
  %65 = load ptr, ptr %10, align 8
  %66 = load ptr, ptr %11, align 8
  %67 = load ptr, ptr %12, align 8
  %68 = call i32 @dissect_dcom_dcerpc_array_size(ptr noundef %62, i32 noundef %63, ptr noundef %64, ptr noundef %65, ptr noundef %66, ptr noundef %67, ptr noundef %15)
  store i32 %68, ptr %8, align 4
  store i32 1, ptr %20, align 4
  br label %69

69:                                               ; preds = %153, %61
  %70 = load i32, ptr %15, align 4
  %71 = add i32 %70, -1
  store i32 %71, ptr %15, align 4
  %72 = icmp ne i32 %70, 0
  br i1 %72, label %73, label %156

73:                                               ; preds = %69
  call void @llvm.lifetime.start.p0(i64 8, ptr %22) #12
  call void @llvm.lifetime.start.p0(i64 8, ptr %23) #12
  %74 = load ptr, ptr %10, align 8
  %75 = load i32, ptr @hf_cba_getidout, align 4
  %76 = load ptr, ptr %7, align 8
  %77 = load i32, ptr %8, align 4
  %78 = call ptr @proto_tree_add_item(ptr noundef %74, i32 noundef %75, ptr noundef %76, i32 noundef %77, i32 noundef 0, i32 noundef 0)
  store ptr %78, ptr %22, align 8
  %79 = load ptr, ptr %22, align 8
  %80 = load i32, ptr @ett_cba_getidout, align 4
  %81 = call ptr @proto_item_add_subtree(ptr noundef %79, i32 noundef %80)
  store ptr %81, ptr %23, align 8
  %82 = load i32, ptr %8, align 4
  store i32 %82, ptr %21, align 4
  %83 = load ptr, ptr %7, align 8
  %84 = load i32, ptr %8, align 4
  %85 = load ptr, ptr %9, align 8
  %86 = load ptr, ptr %23, align 8
  %87 = load ptr, ptr %11, align 8
  %88 = load ptr, ptr %12, align 8
  %89 = load i32, ptr @hf_cba_acco_conn_cons_id, align 4
  %90 = call i32 @dissect_ndr_uint32(ptr noundef %83, i32 noundef %84, ptr noundef %85, ptr noundef %86, ptr noundef %87, ptr noundef %88, i32 noundef %89, ptr noundef %16)
  store i32 %90, ptr %8, align 4
  %91 = load ptr, ptr %7, align 8
  %92 = load i32, ptr %8, align 4
  %93 = load ptr, ptr %9, align 8
  %94 = load ptr, ptr %23, align 8
  %95 = load ptr, ptr %11, align 8
  %96 = load ptr, ptr %12, align 8
  %97 = load i32, ptr @hf_cba_acco_conn_state, align 4
  %98 = call i32 @dissect_ndr_uint8(ptr noundef %91, i32 noundef %92, ptr noundef %93, ptr noundef %94, ptr noundef %95, ptr noundef %96, i32 noundef %97, ptr noundef %17)
  store i32 %98, ptr %8, align 4
  %99 = load ptr, ptr %7, align 8
  %100 = load i32, ptr %8, align 4
  %101 = load ptr, ptr %9, align 8
  %102 = load ptr, ptr %23, align 8
  %103 = load ptr, ptr %11, align 8
  %104 = load ptr, ptr %12, align 8
  %105 = load i32, ptr @hf_cba_acco_conn_version, align 4
  %106 = call i32 @dissect_ndr_uint16(ptr noundef %99, i32 noundef %100, ptr noundef %101, ptr noundef %102, ptr noundef %103, ptr noundef %104, i32 noundef %105, ptr noundef %18)
  store i32 %106, ptr %8, align 4
  %107 = load ptr, ptr %7, align 8
  %108 = load i32, ptr %8, align 4
  %109 = load ptr, ptr %9, align 8
  %110 = load ptr, ptr %23, align 8
  %111 = load ptr, ptr %11, align 8
  %112 = load ptr, ptr %12, align 8
  %113 = load i32, ptr %20, align 4
  %114 = call i32 @dissect_dcom_indexed_HRESULT(ptr noundef %107, i32 noundef %108, ptr noundef %109, ptr noundef %110, ptr noundef %111, ptr noundef %112, ptr noundef %19, i32 noundef %113)
  store i32 %114, ptr %8, align 4
  %115 = load ptr, ptr %22, align 8
  %116 = load i32, ptr %20, align 4
  %117 = load i32, ptr %16, align 4
  %118 = load i8, ptr %17, align 1
  %119 = zext i8 %118 to i32
  %120 = call ptr @val_to_str(i32 noundef %119, ptr noundef @cba_acco_conn_state_vals, ptr noundef @.str.256)
  %121 = load i16, ptr %18, align 2
  %122 = zext i16 %121 to i32
  %123 = load i32, ptr %19, align 4
  %124 = call ptr @val_to_str(i32 noundef %123, ptr noundef @dcom_hresult_vals, ptr noundef @.str.259)
  call void (ptr, ptr, ...) @proto_item_append_text(ptr noundef %115, ptr noundef @.str.265, i32 noundef %116, i32 noundef %117, ptr noundef %120, i32 noundef %122, ptr noundef %124)
  %125 = load ptr, ptr %22, align 8
  %126 = load i32, ptr %8, align 4
  %127 = load i32, ptr %21, align 4
  %128 = sub i32 %126, %127
  call void @proto_item_set_len(ptr noundef %125, i32 noundef %128)
  %129 = load i32, ptr %20, align 4
  %130 = icmp eq i32 %129, 1
  br i1 %130, label %131, label %136

131:                                              ; preds = %73
  %132 = load ptr, ptr %9, align 8
  %133 = getelementptr inbounds nuw %struct._packet_info, ptr %132, i32 0, i32 1
  %134 = load ptr, ptr %133, align 8
  %135 = load i32, ptr %16, align 4
  call void (ptr, i32, ptr, ...) @col_append_fstr(ptr noundef %134, i32 noundef 25, ptr noundef @.str.266, i32 noundef %135)
  br label %153

136:                                              ; preds = %73
  %137 = load i32, ptr %20, align 4
  %138 = icmp ult i32 %137, 10
  br i1 %138, label %139, label %144

139:                                              ; preds = %136
  %140 = load ptr, ptr %9, align 8
  %141 = getelementptr inbounds nuw %struct._packet_info, ptr %140, i32 0, i32 1
  %142 = load ptr, ptr %141, align 8
  %143 = load i32, ptr %16, align 4
  call void (ptr, i32, ptr, ...) @col_append_fstr(ptr noundef %142, i32 noundef 25, ptr noundef @.str.267, i32 noundef %143)
  br label %152

144:                                              ; preds = %136
  %145 = load i32, ptr %20, align 4
  %146 = icmp eq i32 %145, 10
  br i1 %146, label %147, label %151

147:                                              ; preds = %144
  %148 = load ptr, ptr %9, align 8
  %149 = getelementptr inbounds nuw %struct._packet_info, ptr %148, i32 0, i32 1
  %150 = load ptr, ptr %149, align 8
  call void @col_append_str(ptr noundef %150, i32 noundef 25, ptr noundef @.str.268)
  br label %151

151:                                              ; preds = %147, %144
  br label %152

152:                                              ; preds = %151, %139
  br label %153

153:                                              ; preds = %152, %131
  %154 = load i32, ptr %20, align 4
  %155 = add i32 %154, 1
  store i32 %155, ptr %20, align 4
  call void @llvm.lifetime.end.p0(i64 8, ptr %23) #12
  call void @llvm.lifetime.end.p0(i64 8, ptr %22) #12
  br label %69, !llvm.loop !16

156:                                              ; preds = %69
  br label %157

157:                                              ; preds = %156, %51
  %158 = load ptr, ptr %7, align 8
  %159 = load i32, ptr %8, align 4
  %160 = load ptr, ptr %9, align 8
  %161 = load ptr, ptr %10, align 8
  %162 = load ptr, ptr %11, align 8
  %163 = load ptr, ptr %12, align 8
  %164 = call i32 @dissect_dcom_HRESULT(ptr noundef %158, i32 noundef %159, ptr noundef %160, ptr noundef %161, ptr noundef %162, ptr noundef %163, ptr noundef %19)
  store i32 %164, ptr %8, align 4
  %165 = load ptr, ptr %9, align 8
  %166 = getelementptr inbounds nuw %struct._packet_info, ptr %165, i32 0, i32 1
  %167 = load ptr, ptr %166, align 8
  %168 = load i32, ptr %19, align 4
  %169 = call ptr @val_to_str(i32 noundef %168, ptr noundef @dcom_hresult_vals, ptr noundef @.str.259)
  call void (ptr, i32, ptr, ...) @col_append_fstr(ptr noundef %167, i32 noundef 25, ptr noundef @.str.261, ptr noundef %169)
  %170 = load i32, ptr %8, align 4
  call void @llvm.lifetime.end.p0(i64 4, ptr %21) #12
  call void @llvm.lifetime.end.p0(i64 4, ptr %20) #12
  call void @llvm.lifetime.end.p0(i64 4, ptr %19) #12
  call void @llvm.lifetime.end.p0(i64 2, ptr %18) #12
  call void @llvm.lifetime.end.p0(i64 1, ptr %17) #12
  call void @llvm.lifetime.end.p0(i64 4, ptr %16) #12
  call void @llvm.lifetime.end.p0(i64 4, ptr %15) #12
  call void @llvm.lifetime.end.p0(i64 4, ptr %14) #12
  call void @llvm.lifetime.end.p0(i64 4, ptr %13) #12
  ret i32 %170
}