; Function Attrs: null_pointer_is_valid sspstrong uwtable
define internal i32 @dissect_ICBAAccoMgt_GetIDs_resp(ptr noundef %0, i32 noundef %1, ptr noundef %2, ptr noundef %3, ptr noundef %4, ptr noundef %5) #0 {
  %7 = alloca i32, align 4
  %8 = alloca i32, align 4
  %9 = alloca i32, align 4
  %10 = alloca i32, align 4
  %11 = alloca i8, align 1
  %12 = alloca i16, align 2
  %13 = alloca i32, align 4
  call void @llvm.lifetime.start.p0(i64 4, ptr nonnull %7) #12
  call void @llvm.lifetime.start.p0(i64 4, ptr nonnull %8) #12
  call void @llvm.lifetime.start.p0(i64 4, ptr nonnull %9) #12
  call void @llvm.lifetime.start.p0(i64 4, ptr nonnull %10) #12
  call void @llvm.lifetime.start.p0(i64 1, ptr nonnull %11) #12
  call void @llvm.lifetime.start.p0(i64 2, ptr nonnull %12) #12
  call void @llvm.lifetime.start.p0(i64 4, ptr nonnull %13) #12
  %14 = tail call i32 @dissect_dcom_that(ptr noundef %0, i32 noundef %1, ptr noundef %2, ptr noundef %3, ptr noundef %4, ptr noundef %5)
  %15 = load i32, ptr @hf_cba_acco_count, align 4
  %16 = call i32 @dissect_ndr_uint32(ptr noundef %0, i32 noundef %14, ptr noundef %2, ptr noundef %3, ptr noundef %4, ptr noundef %5, i32 noundef %15, ptr noundef nonnull %7)
  %17 = load i32, ptr %7, align 4
  %.not = icmp eq i32 %17, 0
  %18 = getelementptr inbounds nuw i8, ptr %2, i64 8
  %19 = load ptr, ptr %18, align 8
  br i1 %.not, label %21, label %20

20:                                               ; preds = %6
  call void (ptr, i32, ptr, ...) @col_append_fstr(ptr noundef %19, i32 noundef 25, ptr noundef nonnull @.str.264, i32 noundef %17)
  br label %22

21:                                               ; preds = %6
  call void (ptr, i32, ptr, ...) @col_append_fstr(ptr noundef %19, i32 noundef 25, ptr noundef nonnull @.str.260, i32 noundef 0)
  br label %22

22:                                               ; preds = %21, %20
  %23 = call i32 @dissect_dcom_dcerpc_pointer(ptr noundef %0, i32 noundef %16, ptr noundef %2, ptr noundef %3, ptr noundef %4, ptr noundef %5, ptr noundef nonnull %8)
  %24 = load i32, ptr %8, align 4
  %.not78 = icmp eq i32 %24, 0
  br i1 %.not78, label %.loopexit, label %25

25:                                               ; preds = %22
  %26 = call i32 @dissect_dcom_dcerpc_array_size(ptr noundef %0, i32 noundef %23, ptr noundef %2, ptr noundef %3, ptr noundef %4, ptr noundef %5, ptr noundef nonnull %9)
  %27 = load i32, ptr %9, align 4
  %28 = add i32 %27, -1
  store i32 %28, ptr %9, align 4
  %.not7980 = icmp eq i32 %27, 0
  br i1 %.not7980, label %.loopexit, label %.lr.ph

.lr.ph:                                           ; preds = %25
  %29 = getelementptr inbounds nuw i8, ptr %2, i64 8
  br label %30

30:                                               ; preds = %.lr.ph, %64
  %.182 = phi i32 [ %26, %.lr.ph ], [ %41, %64 ]
  %.07581 = phi i32 [ 1, %.lr.ph ], [ %65, %64 ]
  %31 = load i32, ptr @hf_cba_getidout, align 4
  %32 = call ptr @proto_tree_add_item(ptr noundef %3, i32 noundef %31, ptr noundef %0, i32 noundef %.182, i32 noundef 0, i32 noundef 0)
  %33 = load i32, ptr @ett_cba_getidout, align 4
  %34 = call ptr @proto_item_add_subtree(ptr noundef %32, i32 noundef %33)
  %35 = load i32, ptr @hf_cba_acco_conn_cons_id, align 4
  %36 = call i32 @dissect_ndr_uint32(ptr noundef %0, i32 noundef %.182, ptr noundef %2, ptr noundef %34, ptr noundef %4, ptr noundef %5, i32 noundef %35, ptr noundef nonnull %10)
  %37 = load i32, ptr @hf_cba_acco_conn_state, align 4
  %38 = call i32 @dissect_ndr_uint8(ptr noundef %0, i32 noundef %36, ptr noundef %2, ptr noundef %34, ptr noundef %4, ptr noundef %5, i32 noundef %37, ptr noundef nonnull %11)
  %39 = load i32, ptr @hf_cba_acco_conn_version, align 4
  %40 = call i32 @dissect_ndr_uint16(ptr noundef %0, i32 noundef %38, ptr noundef %2, ptr noundef %34, ptr noundef %4, ptr noundef %5, i32 noundef %39, ptr noundef nonnull %12)
  %41 = call i32 @dissect_dcom_indexed_HRESULT(ptr noundef %0, i32 noundef %40, ptr noundef %2, ptr noundef %34, ptr noundef %4, ptr noundef %5, ptr noundef nonnull %13, i32 noundef %.07581)
  %42 = load i32, ptr %10, align 4
  %43 = load i8, ptr %11, align 1
  %44 = zext i8 %43 to i32
  %45 = call ptr @val_to_str(i32 noundef %44, ptr noundef nonnull @cba_acco_conn_state_vals, ptr noundef nonnull @.str.256)
  %46 = load i16, ptr %12, align 2
  %47 = zext i16 %46 to i32
  %48 = load i32, ptr %13, align 4
  %49 = call ptr @val_to_str(i32 noundef %48, ptr noundef nonnull @dcom_hresult_vals, ptr noundef nonnull @.str.259)
  call void (ptr, ptr, ...) @proto_item_append_text(ptr noundef %32, ptr noundef nonnull @.str.265, i32 noundef %.07581, i32 noundef %42, ptr noundef %45, i32 noundef %47, ptr noundef %49)
  %50 = sub i32 %41, %.182
  call void @proto_item_set_len(ptr noundef %32, i32 noundef %50)
  %51 = icmp eq i32 %.07581, 1
  br i1 %51, label %52, label %55

52:                                               ; preds = %30
  %53 = load ptr, ptr %29, align 8
  %54 = load i32, ptr %10, align 4
  call void (ptr, i32, ptr, ...) @col_append_fstr(ptr noundef %53, i32 noundef 25, ptr noundef nonnull @.str.266, i32 noundef %54)
  br label %64

55:                                               ; preds = %30
  %56 = icmp ult i32 %.07581, 10
  br i1 %56, label %57, label %60

57:                                               ; preds = %55
  %58 = load ptr, ptr %29, align 8
  %59 = load i32, ptr %10, align 4
  call void (ptr, i32, ptr, ...) @col_append_fstr(ptr noundef %58, i32 noundef 25, ptr noundef nonnull @.str.267, i32 noundef %59)
  br label %64

60:                                               ; preds = %55
  %61 = icmp eq i32 %.07581, 10
  br i1 %61, label %62, label %64

62:                                               ; preds = %60
  %63 = load ptr, ptr %29, align 8
  call void @col_append_str(ptr noundef %63, i32 noundef 25, ptr noundef nonnull @.str.268)
  br label %64

64:                                               ; preds = %57, %62, %60, %52
  %65 = add i32 %.07581, 1
  %66 = load i32, ptr %9, align 4
  %67 = add i32 %66, -1
  store i32 %67, ptr %9, align 4
  %.not79 = icmp eq i32 %66, 0
  br i1 %.not79, label %.loopexit, label %30, !llvm.loop !17

.loopexit:                                        ; preds = %64, %25, %22
  %.0 = phi i32 [ %23, %22 ], [ %26, %25 ], [ %41, %64 ]
  %68 = call i32 @dissect_dcom_HRESULT(ptr noundef %0, i32 noundef %.0, ptr noundef %2, ptr noundef %3, ptr noundef %4, ptr noundef %5, ptr noundef nonnull %13)
  %69 = getelementptr inbounds nuw i8, ptr %2, i64 8
  %70 = load ptr, ptr %69, align 8
  %71 = load i32, ptr %13, align 4
  %72 = call ptr @val_to_str(i32 noundef %71, ptr noundef nonnull @dcom_hresult_vals, ptr noundef nonnull @.str.259)
  call void (ptr, i32, ptr, ...) @col_append_fstr(ptr noundef %70, i32 noundef 25, ptr noundef nonnull @.str.261, ptr noundef %72)
  call void @llvm.lifetime.end.p0(i64 4, ptr nonnull %13) #12
  call void @llvm.lifetime.end.p0(i64 2, ptr nonnull %12) #12
  call void @llvm.lifetime.end.p0(i64 1, ptr nonnull %11) #12
  call void @llvm.lifetime.end.p0(i64 4, ptr nonnull %10) #12
  call void @llvm.lifetime.end.p0(i64 4, ptr nonnull %9) #12
  call void @llvm.lifetime.end.p0(i64 4, ptr nonnull %8) #12
  call void @llvm.lifetime.end.p0(i64 4, ptr nonnull %7) #12
  ret i32 %68
}